; Function Attrs: mustprogress uwtable
define noundef ptr @_ZNK6icu_7511PluralRules15rulesForKeywordERKNS_13UnicodeStringE(ptr nocapture noundef nonnull readonly align 8 dereferenceable(28) %this, ptr noundef nonnull align 8 dereferenceable(64) %keyword) local_unnamed_addr #1 align 2 {
entry:
  %mRules = getelementptr inbounds i8, ptr %this, i64 8
  %fUnion.i5.i = getelementptr inbounds i8, ptr %keyword, i64 8
  %rc.05 = load ptr, ptr %mRules, align 8
  %cmp.not6 = icmp eq ptr %rc.05, null
  br i1 %cmp.not6, label %for.end, label %for.body.lr.ph

for.body.lr.ph:                                   ; preds = %entry
  %fLength.i10.i = getelementptr inbounds i8, ptr %keyword, i64 12
  br label %for.body

for.body:                                         ; preds = %for.body.lr.ph, %for.inc
  %rc.07 = phi ptr [ %rc.05, %for.body.lr.ph ], [ %rc.0, %for.inc ]
  %fKeyword = getelementptr inbounds i8, ptr %rc.07, i64 8
  %fUnion.i.i = getelementptr inbounds i8, ptr %rc.07, i64 16
  %0 = load i16, ptr %fUnion.i.i, align 8
  %conv2.i14.i = and i16 %0, 1
  %tobool.not.i = icmp eq i16 %conv2.i14.i, 0
  br i1 %tobool.not.i, label %if.else.i, label %if.then.i

if.then.i:                                        ; preds = %for.body
  %1 = load i16, ptr %fUnion.i5.i, align 8
  %conv2.i615.i = and i16 %1, 1
  %tobool3.i.not = icmp eq i16 %conv2.i615.i, 0
  br i1 %tobool3.i.not, label %for.inc, label %for.end

if.else.i:                                        ; preds = %for.body
  %cmp.i.i.i = icmp slt i16 %0, 0
  %2 = ashr i16 %0, 5
  %shr.i.i.i = sext i16 %2 to i32
  %fLength.i.i = getelementptr inbounds i8, ptr %rc.07, i64 20
  %3 = load i32, ptr %fLength.i.i, align 4
  %cond.i.i = select i1 %cmp.i.i.i, i32 %3, i32 %shr.i.i.i
  %4 = load i16, ptr %fUnion.i5.i, align 8
  %cmp.i.i8.i = icmp slt i16 %4, 0
  %5 = ashr i16 %4, 5
  %shr.i.i9.i = sext i16 %5 to i32
  %6 = load i32, ptr %fLength.i10.i, align 4
  %cond.i11.i = select i1 %cmp.i.i8.i, i32 %6, i32 %shr.i.i9.i
  %conv2.i1316.i = and i16 %4, 1
  %tobool7.not.i = icmp eq i16 %conv2.i1316.i, 0
  %cmp.i = icmp eq i32 %cond.i.i, %cond.i11.i
  %or.cond.i = and i1 %tobool7.not.i, %cmp.i
  br i1 %or.cond.i, label %_ZNK6icu_7513UnicodeStringeqERKS0_.exit, label %for.inc

_ZNK6icu_7513UnicodeStringeqERKS0_.exit:          ; preds = %if.else.i
  %call8.i = tail call noundef signext i8 @_ZNK6icu_7513UnicodeString8doEqualsERKS0_i(ptr noundef nonnull align 8 dereferenceable(64) %fKeyword, ptr noundef nonnull align 8 dereferenceable(64) %keyword, i32 noundef %cond.i.i)
  %tobool9.i.not = icmp eq i8 %call8.i, 0
  br i1 %tobool9.i.not, label %for.inc, label %for.end

for.inc:                                          ; preds = %if.else.i, %if.then.i, %_ZNK6icu_7513UnicodeStringeqERKS0_.exit
  %fNext = getelementptr inbounds i8, ptr %rc.07, i64 72
  %rc.0 = load ptr, ptr %fNext, align 8
  %cmp.not = icmp eq ptr %rc.0, null
  br i1 %cmp.not, label %for.end, label %for.body, !llvm.loop !40

for.end:                                          ; preds = %for.inc, %_ZNK6icu_7513UnicodeStringeqERKS0_.exit, %if.then.i, %entry
  %rc.0.lcssa = phi ptr [ null, %entry ], [ %rc.07, %if.then.i ], [ %rc.07, %_ZNK6icu_7513UnicodeStringeqERKS0_.exit ], [ null, %for.inc ]
  ret ptr %rc.0.lcssa
}